; Function Attrs: mustprogress uwtable
define dso_local void @_ZN3igl7tinyply10PlyElementC2ERSi(ptr noundef nonnull align 8 dereferenceable(64) %0, ptr noundef nonnull align 8 dereferenceable(16) %1) unnamed_addr #1 align 2 personality ptr @__gxx_personality_v0 {
  %3 = getelementptr inbounds nuw i8, ptr %0, i64 16
  store ptr %3, ptr %0, align 8, !tbaa !34
  %4 = getelementptr inbounds nuw i8, ptr %0, i64 8
  store i64 0, ptr %4, align 8, !tbaa !32
  store i8 0, ptr %3, align 8, !tbaa !33
  %5 = getelementptr inbounds nuw i8, ptr %0, i64 32
  %6 = getelementptr inbounds nuw i8, ptr %0, i64 40
  tail call void @llvm.memset.p0.i64(ptr noundef nonnull align 8 dereferenceable(32) %5, i8 0, i64 32, i1 false)
  %7 = invoke noundef nonnull align 8 dereferenceable(16) ptr @_ZStrsIcSt11char_traitsIcESaIcEERSt13basic_istreamIT_T0_ES7_RNSt7__cxx1112basic_stringIS4_S5_T1_EE(ptr noundef nonnull align 8 dereferenceable(16) %1, ptr noundef nonnull align 8 dereferenceable(32) %0)
          to label %8 unwind label %10

8:                                                ; preds = %2
  %9 = invoke noundef nonnull align 8 dereferenceable(16) ptr @_ZNSi10_M_extractImEERSiRT_(ptr noundef nonnull align 8 dereferenceable(16) %7, ptr noundef nonnull align 8 dereferenceable(8) %5)
          to label %_ZNSirsERm.exit unwind label %10

_ZNSirsERm.exit:                                  ; preds = %8
  ret void

10:                                               ; preds = %8, %2
  %11 = landingpad { ptr, i32 }
          cleanup
  tail call void @_ZNSt6vectorIN3igl7tinyply11PlyPropertyESaIS2_EED2Ev(ptr noundef nonnull align 8 dereferenceable(24) %6) #30
  %12 = load ptr, ptr %0, align 8, !tbaa !28
  %13 = icmp eq ptr %12, %3
  br i1 %13, label %_ZNKSt7__cxx1112basic_stringIcSt11char_traitsIcESaIcEE11_M_is_localEv.exit.thread.i.i, label %_ZNKSt7__cxx1112basic_stringIcSt11char_traitsIcESaIcEE11_M_is_localEv.exit.i.i

_ZNKSt7__cxx1112basic_stringIcSt11char_traitsIcESaIcEE11_M_is_localEv.exit.thread.i.i: ; preds = %10
  %14 = load i64, ptr %4, align 8, !tbaa !32
  %15 = icmp ult i64 %14, 16
  tail call void @llvm.assume(i1 %15)
  br label %_ZNSt7__cxx1112basic_stringIcSt11char_traitsIcESaIcEED2Ev.exit

_ZNKSt7__cxx1112basic_stringIcSt11char_traitsIcESaIcEE11_M_is_localEv.exit.i.i: ; preds = %10
  %16 = load i64, ptr %3, align 8, !tbaa !33
  %17 = add i64 %16, 1
  tail call void @_ZdlPvm(ptr noundef %12, i64 noundef %17) #32
  br label %_ZNSt7__cxx1112basic_stringIcSt11char_traitsIcESaIcEED2Ev.exit

_ZNSt7__cxx1112basic_stringIcSt11char_traitsIcESaIcEED2Ev.exit: ; preds = %_ZNKSt7__cxx1112basic_stringIcSt11char_traitsIcESaIcEE11_M_is_localEv.exit.thread.i.i, %_ZNKSt7__cxx1112basic_stringIcSt11char_traitsIcESaIcEE11_M_is_localEv.exit.i.i
  resume { ptr, i32 } %11
}